target datalayout = "e-m:e-p270:32:32-p271:32:32-p272:64:64-i64:64-i128:128-f80:128-n8:16:32:64-S128"
target triple = "x86_64-pc-linux-gnu"

%struct.TS_tst_info_st = type { ptr, ptr, ptr, ptr, ptr, ptr, i32, ptr, ptr, ptr }

@.str = private unnamed_addr constant [36 x i8] c"../openssl/crypto/ts/ts_rsp_utils.c\00", align 1
@__func__.TS_TST_INFO_set_time = private unnamed_addr constant [21 x i8] c"TS_TST_INFO_set_time\00", align 1

; Function Attrs: nounwind uwtable
define i32 @TS_TST_INFO_set_time(ptr noundef %0, ptr noundef %1) #0 {
  %3 = alloca i32, align 4
  %4 = alloca ptr, align 8
  %5 = alloca ptr, align 8
  %6 = alloca ptr, align 8
  %7 = alloca i32, align 4
  store ptr %0, ptr %4, align 8, !tbaa !15
  store ptr %1, ptr %5, align 8, !tbaa !33
  call void @llvm.lifetime.start.p0(i64 8, ptr %6) #4
  %8 = load ptr, ptr %4, align 8, !tbaa !15
  %9 = getelementptr inbounds nuw %struct.TS_tst_info_st, ptr %8, i32 0, i32 4
  %10 = load ptr, ptr %9, align 8, !tbaa !35
  %11 = load ptr, ptr %5, align 8, !tbaa !33
  %12 = icmp eq ptr %10, %11
  br i1 %12, label %13, label %14

13:                                               ; preds = %2
  store i32 1, ptr %3, align 4
  store i32 1, ptr %7, align 4
  br label %27

14:                                               ; preds = %2
  %15 = load ptr, ptr %5, align 8, !tbaa !33
  %16 = call ptr @ASN1_STRING_dup(ptr noundef %15)
  store ptr %16, ptr %6, align 8, !tbaa !33
  %17 = load ptr, ptr %6, align 8, !tbaa !33
  %18 = icmp eq ptr %17, null
  br i1 %18, label %19, label %20

19:                                               ; preds = %14
  call void @ERR_new()
  call void @ERR_set_debug(ptr noundef @.str, i32 noundef 139, ptr noundef @__func__.TS_TST_INFO_set_time)
  call void (i32, i32, ptr, ...) @ERR_set_error(i32 noundef 47, i32 noundef 524301, ptr noundef null)
  store i32 0, ptr %3, align 4
  store i32 1, ptr %7, align 4
  br label %27

20:                                               ; preds = %14
  %21 = load ptr, ptr %4, align 8, !tbaa !15
  %22 = getelementptr inbounds nuw %struct.TS_tst_info_st, ptr %21, i32 0, i32 4
  %23 = load ptr, ptr %22, align 8, !tbaa !35
  call void @ASN1_GENERALIZEDTIME_free(ptr noundef %23)
  %24 = load ptr, ptr %6, align 8, !tbaa !33
  %25 = load ptr, ptr %4, align 8, !tbaa !15
  %26 = getelementptr inbounds nuw %struct.TS_tst_info_st, ptr %25, i32 0, i32 4
  store ptr %24, ptr %26, align 8, !tbaa !35
  store i32 1, ptr %3, align 4
  store i32 1, ptr %7, align 4
  br label %27

27:                                               ; preds = %20, %19, %13
  call void @llvm.lifetime.end.p0(i64 8, ptr %6) #4
  %28 = load i32, ptr %3, align 4
  ret i32 %28
}